; Function Attrs: mustprogress uwtable
define dso_local void @_ZNK4Luau16TestFileResolver23getEnvironmentForModuleERKNSt7__cxx1112basic_stringIcSt11char_traitsIcESaIcEEE(ptr dead_on_unwind noalias writable sret(%"class.std::optional.5") align 8 %0, ptr noundef nonnull align 8 dereferenceable(184) %1, ptr noundef nonnull align 8 dereferenceable(32) %2) unnamed_addr #6 align 2 {
  %4 = getelementptr inbounds nuw i8, ptr %1, i64 128
  %5 = tail call ptr @_ZNKSt10_HashtableINSt7__cxx1112basic_stringIcSt11char_traitsIcESaIcEEESt4pairIKS5_S5_ESaIS8_ENSt8__detail10_Select1stESt8equal_toIS5_ESt4hashIS5_ENSA_18_Mod_range_hashingENSA_20_Default_ranged_hashENSA_20_Prime_rehash_policyENSA_17_Hashtable_traitsILb1ELb0ELb1EEEE4findERS7_(ptr noundef nonnull align 8 dereferenceable(56) %4, ptr noundef nonnull align 8 dereferenceable(32) %2)
  %.not = icmp eq ptr %5, null
  br i1 %.not, label %8, label %6

6:                                                ; preds = %3
  %7 = getelementptr inbounds nuw i8, ptr %5, i64 40
  tail call void @_ZNSt7__cxx1112basic_stringIcSt11char_traitsIcESaIcEEC1ERKS4_(ptr noundef nonnull align 8 dereferenceable(40) %0, ptr noundef nonnull align 8 dereferenceable(32) %7)
  br label %8

8:                                                ; preds = %3, %6
  %.sink = phi i8 [ 1, %6 ], [ 0, %3 ]
  %9 = getelementptr inbounds nuw i8, ptr %0, i64 32
  store i8 %.sink, ptr %9, align 8
  ret void
}